target datalayout = "e-m:e-p270:32:32-p271:32:32-p272:64:64-i64:64-i128:128-f80:128-n8:16:32:64-S128"
target triple = "x86_64-pc-linux-gnu"

%struct.buf_mem_st = type { i64, ptr, i64, i64 }

@bio_err = external global ptr, align 8
@.str.50 = private unnamed_addr constant [8 x i8] c"default\00", align 1
@.str.51 = private unnamed_addr constant [5 x i8] c"asn1\00", align 1
@.str.52 = private unnamed_addr constant [27 x i8] c"Can't find 'asn1' in '%s'\0A\00", align 1

; Function Attrs: nounwind uwtable
define internal i32 @do_generate(ptr noundef %0, ptr noundef %1, ptr noundef %2) #0 {
  %4 = alloca i32, align 4
  %5 = alloca ptr, align 8
  %6 = alloca ptr, align 8
  %7 = alloca ptr, align 8
  %8 = alloca ptr, align 8
  %9 = alloca i32, align 4
  %10 = alloca ptr, align 8
  %11 = alloca ptr, align 8
  %12 = alloca i32, align 4
  store ptr %0, ptr %5, align 8, !tbaa !19
  store ptr %1, ptr %6, align 8, !tbaa !19
  store ptr %2, ptr %7, align 8, !tbaa !15
  call void @llvm.lifetime.start.p0(i64 8, ptr %8) #5
  store ptr null, ptr %8, align 8, !tbaa !41
  call void @llvm.lifetime.start.p0(i64 4, ptr %9) #5
  call void @llvm.lifetime.start.p0(i64 8, ptr %10) #5
  call void @llvm.lifetime.start.p0(i64 8, ptr %11) #5
  store ptr null, ptr %11, align 8, !tbaa !11
  %13 = load ptr, ptr %6, align 8, !tbaa !19
  %14 = icmp ne ptr %13, null
  br i1 %14, label %15, label %34

15:                                               ; preds = %3
  %16 = load ptr, ptr %6, align 8, !tbaa !19
  %17 = call ptr @app_load_config_internal(ptr noundef %16, i32 noundef 0)
  store ptr %17, ptr %8, align 8, !tbaa !41
  %18 = icmp eq ptr %17, null
  br i1 %18, label %19, label %20

19:                                               ; preds = %15
  br label %63

20:                                               ; preds = %15
  %21 = load ptr, ptr %5, align 8, !tbaa !19
  %22 = icmp eq ptr %21, null
  br i1 %22, label %23, label %26

23:                                               ; preds = %20
  %24 = load ptr, ptr %8, align 8, !tbaa !41
  %25 = call ptr @NCONF_get_string(ptr noundef %24, ptr noundef @.str.50, ptr noundef @.str.51)
  store ptr %25, ptr %5, align 8, !tbaa !19
  br label %26

26:                                               ; preds = %23, %20
  %27 = load ptr, ptr %5, align 8, !tbaa !19
  %28 = icmp eq ptr %27, null
  br i1 %28, label %29, label %33

29:                                               ; preds = %26
  %30 = load ptr, ptr @bio_err, align 8, !tbaa !13
  %31 = load ptr, ptr %6, align 8, !tbaa !19
  %32 = call i32 (ptr, ptr, ...) @BIO_printf(ptr noundef %30, ptr noundef @.str.52, ptr noundef %31)
  br label %63

33:                                               ; preds = %26
  br label %34

34:                                               ; preds = %33, %3
  %35 = load ptr, ptr %5, align 8, !tbaa !19
  %36 = load ptr, ptr %8, align 8, !tbaa !41
  %37 = call ptr @ASN1_generate_nconf(ptr noundef %35, ptr noundef %36)
  store ptr %37, ptr %11, align 8, !tbaa !11
  %38 = load ptr, ptr %8, align 8, !tbaa !41
  call void @NCONF_free(ptr noundef %38)
  store ptr null, ptr %8, align 8, !tbaa !41
  %39 = load ptr, ptr %11, align 8, !tbaa !11
  %40 = icmp eq ptr %39, null
  br i1 %40, label %41, label %42

41:                                               ; preds = %34
  store i32 -1, ptr %4, align 4
  store i32 1, ptr %12, align 4
  br label %66

42:                                               ; preds = %34
  %43 = load ptr, ptr %11, align 8, !tbaa !11
  %44 = call i32 @i2d_ASN1_TYPE(ptr noundef %43, ptr noundef null)
  store i32 %44, ptr %9, align 4, !tbaa !4
  %45 = load i32, ptr %9, align 4, !tbaa !4
  %46 = icmp sle i32 %45, 0
  br i1 %46, label %47, label %48

47:                                               ; preds = %42
  br label %63

48:                                               ; preds = %42
  %49 = load ptr, ptr %7, align 8, !tbaa !15
  %50 = load i32, ptr %9, align 4, !tbaa !4
  %51 = sext i32 %50 to i64
  %52 = call i64 @BUF_MEM_grow(ptr noundef %49, i64 noundef %51)
  %53 = icmp ne i64 %52, 0
  br i1 %53, label %55, label %54

54:                                               ; preds = %48
  br label %63

55:                                               ; preds = %48
  %56 = load ptr, ptr %7, align 8, !tbaa !15
  %57 = getelementptr inbounds nuw %struct.buf_mem_st, ptr %56, i32 0, i32 1
  %58 = load ptr, ptr %57, align 8, !tbaa !30
  store ptr %58, ptr %10, align 8, !tbaa !19
  %59 = load ptr, ptr %11, align 8, !tbaa !11
  %60 = call i32 @i2d_ASN1_TYPE(ptr noundef %59, ptr noundef %10)
  %61 = load ptr, ptr %11, align 8, !tbaa !11
  call void @ASN1_TYPE_free(ptr noundef %61)
  %62 = load i32, ptr %9, align 4, !tbaa !4
  store i32 %62, ptr %4, align 4
  store i32 1, ptr %12, align 4
  br label %66

63:                                               ; preds = %54, %47, %29, %19
  %64 = load ptr, ptr %8, align 8, !tbaa !41
  call void @NCONF_free(ptr noundef %64)
  %65 = load ptr, ptr %11, align 8, !tbaa !11
  call void @ASN1_TYPE_free(ptr noundef %65)
  store i32 -1, ptr %4, align 4
  store i32 1, ptr %12, align 4
  br label %66

66:                                               ; preds = %63, %55, %41
  call void @llvm.lifetime.end.p0(i64 8, ptr %11) #5
  call void @llvm.lifetime.end.p0(i64 8, ptr %10) #5
  call void @llvm.lifetime.end.p0(i64 4, ptr %9) #5
  call void @llvm.lifetime.end.p0(i64 8, ptr %8) #5
  %67 = load i32, ptr %4, align 4
  ret i32 %67
}