; Function Attrs: nounwind uwtable
define internal fastcc range(i32 -1, -2147483648) i32 @do_generate(ptr noundef %0, ptr noundef %1, ptr noundef nonnull %2) unnamed_addr #0 {
  %4 = alloca ptr, align 8
  call void @llvm.lifetime.start.p0(i64 8, ptr nonnull %4) #4
  %.not = icmp eq ptr %1, null
  br i1 %.not, label %.thread, label %5

5:                                                ; preds = %3
  %6 = tail call ptr @app_load_config_internal(ptr noundef nonnull %1, i32 noundef 0) #4
  %7 = icmp eq ptr %6, null
  br i1 %7, label %28, label %8

8:                                                ; preds = %5
  %9 = icmp eq ptr %0, null
  br i1 %9, label %10, label %.thread

10:                                               ; preds = %8
  %11 = tail call ptr @NCONF_get_string(ptr noundef nonnull %6, ptr noundef nonnull @.str.50, ptr noundef nonnull @.str.51) #4
  %12 = icmp eq ptr %11, null
  br i1 %12, label %13, label %.thread

13:                                               ; preds = %10
  %14 = load ptr, ptr @bio_err, align 8, !tbaa !11
  %15 = tail call i32 (ptr, ptr, ...) @BIO_printf(ptr noundef %14, ptr noundef nonnull @.str.52, ptr noundef nonnull %1) #4
  br label %28

.thread:                                          ; preds = %8, %10, %3
  %.022 = phi ptr [ %11, %10 ], [ %0, %3 ], [ %0, %8 ]
  %.021 = phi ptr [ %6, %10 ], [ null, %3 ], [ %6, %8 ]
  %16 = tail call ptr @ASN1_generate_nconf(ptr noundef %.022, ptr noundef %.021) #4
  tail call void @NCONF_free(ptr noundef %.021) #4
  %17 = icmp eq ptr %16, null
  br i1 %17, label %29, label %18

18:                                               ; preds = %.thread
  %19 = tail call i32 @i2d_ASN1_TYPE(ptr noundef nonnull %16, ptr noundef null) #4
  %20 = icmp slt i32 %19, 1
  br i1 %20, label %28, label %21

21:                                               ; preds = %18
  %22 = zext nneg i32 %19 to i64
  %23 = tail call i64 @BUF_MEM_grow(ptr noundef nonnull %2, i64 noundef %22) #4
  %.not30 = icmp eq i64 %23, 0
  br i1 %.not30, label %28, label %24

24:                                               ; preds = %21
  %25 = getelementptr inbounds nuw i8, ptr %2, i64 8
  %26 = load ptr, ptr %25, align 8, !tbaa !19
  store ptr %26, ptr %4, align 8, !tbaa !4
  %27 = call i32 @i2d_ASN1_TYPE(ptr noundef nonnull %16, ptr noundef nonnull %4) #4
  call void @ASN1_TYPE_free(ptr noundef nonnull %16) #4
  br label %29

28:                                               ; preds = %21, %18, %5, %13
  %.1 = phi ptr [ null, %5 ], [ %6, %13 ], [ null, %18 ], [ null, %21 ]
  %.0 = phi ptr [ null, %5 ], [ null, %13 ], [ %16, %18 ], [ %16, %21 ]
  tail call void @NCONF_free(ptr noundef %.1) #4
  tail call void @ASN1_TYPE_free(ptr noundef %.0) #4
  br label %29

29:                                               ; preds = %.thread, %28, %24
  %.020 = phi i32 [ -1, %28 ], [ %19, %24 ], [ -1, %.thread ]
  call void @llvm.lifetime.end.p0(i64 8, ptr nonnull %4) #4
  ret i32 %.020
}